target datalayout = "e-m:e-p270:32:32-p271:32:32-p272:64:64-i64:64-i128:128-f80:128-n8:16:32:64-S128"
target triple = "x86_64-pc-linux-gnu"

%"class.Json::Value" = type { %"union.Json::Value::ValueHolder", %struct.anon, %"class.Json::Value::Comments", i64, i64 }
%"union.Json::Value::ValueHolder" = type { i64 }
%struct.anon = type { i16, [2 x i8] }
%"class.Json::Value::Comments" = type { %"class.std::unique_ptr" }
%"class.std::unique_ptr" = type { %"struct.std::__uniq_ptr_data" }
%"struct.std::__uniq_ptr_data" = type { %"class.std::__uniq_ptr_impl" }
%"class.std::__uniq_ptr_impl" = type { %"class.std::tuple" }
%"class.std::tuple" = type { %"struct.std::_Tuple_impl" }
%"struct.std::_Tuple_impl" = type { %"struct.std::_Head_base.12" }
%"struct.std::_Head_base.12" = type { ptr }
%"class.open3d::camera::PinholeCameraIntrinsic" = type { %"class.open3d::utility::IJsonConvertible", i32, i32, %"class.Eigen::Matrix" }
%"class.open3d::utility::IJsonConvertible" = type { ptr }
%"class.Eigen::Matrix" = type { %"class.Eigen::PlainObjectBase" }
%"class.Eigen::PlainObjectBase" = type { %"class.Eigen::DenseStorage" }
%"class.Eigen::DenseStorage" = type { %"struct.Eigen::internal::plain_array" }
%"struct.Eigen::internal::plain_array" = type { [9 x double] }

@.str = private unnamed_addr constant [6 x i8] c"width\00", align 1
@.str.3 = private unnamed_addr constant [7 x i8] c"height\00", align 1
@.str.4 = private unnamed_addr constant [17 x i8] c"intrinsic_matrix\00", align 1

; Function Attrs: mustprogress ssp uwtable
define noundef zeroext i1 @_ZNK6open3d6camera22PinholeCameraIntrinsic18ConvertToJsonValueERN4Json5ValueE(ptr noundef nonnull align 8 dereferenceable(88) %0, ptr noundef nonnull align 8 dereferenceable(40) %1) unnamed_addr #1 align 2 personality ptr @__gxx_personality_v0 {
  %3 = alloca i1, align 1
  %4 = alloca ptr, align 8
  %5 = alloca ptr, align 8
  %6 = alloca %"class.Json::Value", align 8
  %7 = alloca ptr, align 8
  %8 = alloca i32, align 4
  %9 = alloca %"class.Json::Value", align 8
  store ptr %0, ptr %4, align 8, !tbaa !4
  store ptr %1, ptr %5, align 8, !tbaa !9
  %10 = load ptr, ptr %4, align 8
  call void @llvm.lifetime.start.p0(i64 40, ptr %6) #14
  %11 = getelementptr inbounds nuw %"class.open3d::camera::PinholeCameraIntrinsic", ptr %10, i32 0, i32 1
  %12 = load i32, ptr %11, align 8, !tbaa !11
  call void @_ZN4Json5ValueC1Ei(ptr noundef nonnull align 8 dereferenceable(40) %6, i32 noundef %12)
  %13 = load ptr, ptr %5, align 8, !tbaa !9
  %14 = invoke noundef nonnull align 8 dereferenceable(40) ptr @_ZN4Json5ValueixEPKc(ptr noundef nonnull align 8 dereferenceable(40) %13, ptr noundef @.str)
          to label %15 unwind label %30

15:                                               ; preds = %2
  %16 = invoke noundef nonnull align 8 dereferenceable(40) ptr @_ZN4Json5ValueaSEOS0_(ptr noundef nonnull align 8 dereferenceable(40) %14, ptr noundef nonnull align 8 dereferenceable(40) %6)
          to label %17 unwind label %30

17:                                               ; preds = %15
  call void @_ZN4Json5ValueD1Ev(ptr noundef nonnull align 8 dereferenceable(40) %6) #14
  call void @llvm.lifetime.end.p0(i64 40, ptr %6) #14
  call void @llvm.lifetime.start.p0(i64 40, ptr %9) #14
  %18 = getelementptr inbounds nuw %"class.open3d::camera::PinholeCameraIntrinsic", ptr %10, i32 0, i32 2
  %19 = load i32, ptr %18, align 4, !tbaa !19
  call void @_ZN4Json5ValueC1Ei(ptr noundef nonnull align 8 dereferenceable(40) %9, i32 noundef %19)
  %20 = load ptr, ptr %5, align 8, !tbaa !9
  %21 = invoke noundef nonnull align 8 dereferenceable(40) ptr @_ZN4Json5ValueixEPKc(ptr noundef nonnull align 8 dereferenceable(40) %20, ptr noundef @.str.3)
          to label %22 unwind label %34

22:                                               ; preds = %17
  %23 = invoke noundef nonnull align 8 dereferenceable(40) ptr @_ZN4Json5ValueaSEOS0_(ptr noundef nonnull align 8 dereferenceable(40) %21, ptr noundef nonnull align 8 dereferenceable(40) %9)
          to label %24 unwind label %34

24:                                               ; preds = %22
  call void @_ZN4Json5ValueD1Ev(ptr noundef nonnull align 8 dereferenceable(40) %9) #14
  call void @llvm.lifetime.end.p0(i64 40, ptr %9) #14
  %25 = getelementptr inbounds nuw %"class.open3d::camera::PinholeCameraIntrinsic", ptr %10, i32 0, i32 3
  %26 = load ptr, ptr %5, align 8, !tbaa !9
  %27 = call noundef nonnull align 8 dereferenceable(40) ptr @_ZN4Json5ValueixEPKc(ptr noundef nonnull align 8 dereferenceable(40) %26, ptr noundef @.str.4)
  %28 = call noundef zeroext i1 @_ZN6open3d7utility16IJsonConvertible24EigenMatrix3dToJsonArrayERKN5Eigen6MatrixIdLi3ELi3ELi0ELi3ELi3EEERN4Json5ValueE(ptr noundef nonnull align 8 dereferenceable(72) %25, ptr noundef nonnull align 8 dereferenceable(40) %27)
  br i1 %28, label %38, label %29

29:                                               ; preds = %24
  store i1 false, ptr %3, align 1
  br label %39

30:                                               ; preds = %15, %2
  %31 = landingpad { ptr, i32 }
          cleanup
  %32 = extractvalue { ptr, i32 } %31, 0
  store ptr %32, ptr %7, align 8
  %33 = extractvalue { ptr, i32 } %31, 1
  store i32 %33, ptr %8, align 4
  call void @_ZN4Json5ValueD1Ev(ptr noundef nonnull align 8 dereferenceable(40) %6) #14
  call void @llvm.lifetime.end.p0(i64 40, ptr %6) #14
  br label %41

34:                                               ; preds = %22, %17
  %35 = landingpad { ptr, i32 }
          cleanup
  %36 = extractvalue { ptr, i32 } %35, 0
  store ptr %36, ptr %7, align 8
  %37 = extractvalue { ptr, i32 } %35, 1
  store i32 %37, ptr %8, align 4
  call void @_ZN4Json5ValueD1Ev(ptr noundef nonnull align 8 dereferenceable(40) %9) #14
  call void @llvm.lifetime.end.p0(i64 40, ptr %9) #14
  br label %41

38:                                               ; preds = %24
  store i1 true, ptr %3, align 1
  br label %39

39:                                               ; preds = %38, %29
  %40 = load i1, ptr %3, align 1
  ret i1 %40

41:                                               ; preds = %34, %30
  %42 = load ptr, ptr %7, align 8
  %43 = load i32, ptr %8, align 4
  %44 = insertvalue { ptr, i32 } poison, ptr %42, 0
  %45 = insertvalue { ptr, i32 } %44, i32 %43, 1
  resume { ptr, i32 } %45
}