; Function Attrs: mustprogress ssp uwtable
define noundef zeroext i1 @_ZNK6open3d6camera22PinholeCameraIntrinsic18ConvertToJsonValueERN4Json5ValueE(ptr noundef nonnull align 8 dereferenceable(88) %0, ptr noundef nonnull align 8 dereferenceable(40) %1) unnamed_addr #1 align 2 personality ptr @__gxx_personality_v0 {
  %3 = alloca %"class.Json::Value", align 8
  %4 = alloca %"class.Json::Value", align 8
  call void @llvm.lifetime.start.p0(i64 40, ptr nonnull %3) #15
  %5 = getelementptr inbounds nuw i8, ptr %0, i64 8
  %6 = load i32, ptr %5, align 8, !tbaa !4
  call void @_ZN4Json5ValueC1Ei(ptr noundef nonnull align 8 dereferenceable(40) %3, i32 noundef %6)
  %7 = invoke noundef nonnull align 8 dereferenceable(40) ptr @_ZN4Json5ValueixEPKc(ptr noundef nonnull align 8 dereferenceable(40) %1, ptr noundef nonnull @.str)
          to label %8 unwind label %20

8:                                                ; preds = %2
  %9 = invoke noundef nonnull align 8 dereferenceable(40) ptr @_ZN4Json5ValueaSEOS0_(ptr noundef nonnull align 8 dereferenceable(40) %7, ptr noundef nonnull align 8 dereferenceable(40) %3)
          to label %10 unwind label %20

10:                                               ; preds = %8
  call void @_ZN4Json5ValueD1Ev(ptr noundef nonnull align 8 dereferenceable(40) %3) #15
  call void @llvm.lifetime.end.p0(i64 40, ptr nonnull %3) #15
  call void @llvm.lifetime.start.p0(i64 40, ptr nonnull %4) #15
  %11 = getelementptr inbounds nuw i8, ptr %0, i64 12
  %12 = load i32, ptr %11, align 4, !tbaa !14
  call void @_ZN4Json5ValueC1Ei(ptr noundef nonnull align 8 dereferenceable(40) %4, i32 noundef %12)
  %13 = invoke noundef nonnull align 8 dereferenceable(40) ptr @_ZN4Json5ValueixEPKc(ptr noundef nonnull align 8 dereferenceable(40) %1, ptr noundef nonnull @.str.3)
          to label %14 unwind label %22

14:                                               ; preds = %10
  %15 = invoke noundef nonnull align 8 dereferenceable(40) ptr @_ZN4Json5ValueaSEOS0_(ptr noundef nonnull align 8 dereferenceable(40) %13, ptr noundef nonnull align 8 dereferenceable(40) %4)
          to label %16 unwind label %22

16:                                               ; preds = %14
  call void @_ZN4Json5ValueD1Ev(ptr noundef nonnull align 8 dereferenceable(40) %4) #15
  call void @llvm.lifetime.end.p0(i64 40, ptr nonnull %4) #15
  %17 = getelementptr inbounds nuw i8, ptr %0, i64 16
  %18 = call noundef nonnull align 8 dereferenceable(40) ptr @_ZN4Json5ValueixEPKc(ptr noundef nonnull align 8 dereferenceable(40) %1, ptr noundef nonnull @.str.4)
  %19 = call noundef zeroext i1 @_ZN6open3d7utility16IJsonConvertible24EigenMatrix3dToJsonArrayERKN5Eigen6MatrixIdLi3ELi3ELi0ELi3ELi3EEERN4Json5ValueE(ptr noundef nonnull align 8 dereferenceable(72) %17, ptr noundef nonnull align 8 dereferenceable(40) %18)
  ret i1 %19

20:                                               ; preds = %8, %2
  %21 = landingpad { ptr, i32 }
          cleanup
  call void @_ZN4Json5ValueD1Ev(ptr noundef nonnull align 8 dereferenceable(40) %3) #15
  call void @llvm.lifetime.end.p0(i64 40, ptr nonnull %3) #15
  br label %24

22:                                               ; preds = %14, %10
  %23 = landingpad { ptr, i32 }
          cleanup
  call void @_ZN4Json5ValueD1Ev(ptr noundef nonnull align 8 dereferenceable(40) %4) #15
  call void @llvm.lifetime.end.p0(i64 40, ptr nonnull %4) #15
  br label %24

24:                                               ; preds = %22, %20
  %.pn = phi { ptr, i32 } [ %23, %22 ], [ %21, %20 ]
  resume { ptr, i32 } %.pn
}